(dp1
S'hand_motor_joint'
p2
F1.2426809999999999
sS'head_pan_joint'
p3
F-2.0828930929805978e-05
sS'wrist_roll_joint'
p4
F-1.5706412725862418
sS'arm_lift_joint'
p5
F0.01000025172727499
sS'arm_flex_joint'
p6
F-1.6666175020736356
sS'wrist_flex_joint'
p7
F-0.51690039704931223
sS'head_tilt_joint'
p8
F-0.49999913906596949
sS'arm_roll_joint'
p9
F1.5727048038054301
s.