(dp1
S'hand_motor_joint'
p2
F-0.49281799999999998
sS'head_pan_joint'
p3
F9.1710690699464692e-06
sS'wrist_roll_joint'
p4
F-1.5679572725862416
sS'arm_lift_joint'
p5
F0.0099994075072749791
sS'arm_flex_joint'
p6
F-1.6654665020736357
sS'wrist_flex_joint'
p7
F-0.019157397049311964
sS'head_tilt_joint'
p8
F-0.49999913906596949
sS'arm_roll_joint'
p9
F1.60086880380543
s.