(dp1
S'hand_motor_joint'
p2
F1.0506359999999999
sS'head_pan_joint'
p3
F-1.5501238289309298
sS'wrist_roll_joint'
p4
F0.0032187274137585042
sS'arm_lift_joint'
p5
F0.37000396593077067
sS'arm_flex_joint'
p6
F-1.8495455020736356
sS'wrist_flex_joint'
p7
F-1.6698033970493122
sS'head_tilt_joint'
p8
F-0.43022013906596945
sS'arm_roll_joint'
p9
F-1.3037551961945699
s.