(dp1
S'hand_motor_joint'
p2
F-0.55190899999999998
sS'head_pan_joint'
p3
F-5.8289309299297543e-06
sS'wrist_roll_joint'
p4
F-1.5702602725862416
sS'arm_lift_joint'
p5
F0.19812015317910162
sS'arm_flex_joint'
p6
F-1.6666175020736356
sS'wrist_flex_joint'
p7
F-0.51690039704931223
sS'head_tilt_joint'
p8
F-0.5000041390659693
sS'arm_roll_joint'
p9
F1.5727048038054301
s.