(dp1
S'hand_motor_joint'
p2
F-0.55663600000000002
sS'head_pan_joint'
p3
F9.1710690699464692e-06
sS'wrist_roll_joint'
p4
F-1.5702602725862416
sS'arm_lift_joint'
p5
F0.18684159744899212
sS'arm_flex_joint'
p6
F-1.6658505020736356
sS'wrist_flex_joint'
p7
F0.51690360295068771
sS'head_tilt_joint'
p8
F-0.5000041390659693
sS'arm_roll_joint'
p9
F1.5726998038054298
s.