(dp1
S'hand_motor_joint'
p2
F-0.80008999999999997
sS'head_pan_joint'
p3
F9.1710690699464692e-06
sS'wrist_roll_joint'
p4
F-1.5702602725862416
sS'arm_lift_joint'
p5
F0.0068393182372442959
sS'arm_flex_joint'
p6
F-1.6658505020736356
sS'wrist_flex_joint'
p7
F-0.24999939704931218
sS'head_tilt_joint'
p8
F-0.5000041390659693
sS'arm_roll_joint'
p9
F1.5726998038054298
s.